; Function Attrs: nounwind uwtable
define internal fastcc ptr @sema_resolve_path_symbol(ptr nocapture noundef readonly %0, ptr nocapture noundef %1) unnamed_addr #2 {
  %3 = getelementptr inbounds i8, ptr %1, i64 24
  %4 = load ptr, ptr %3, align 8
  store ptr null, ptr %1, align 8
  %5 = getelementptr inbounds i8, ptr %1, i64 48
  store i8 0, ptr %5, align 8
  %6 = getelementptr inbounds i8, ptr %1, i64 40
  %7 = load ptr, ptr %6, align 8
  %8 = getelementptr inbounds i8, ptr %4, i64 8
  %9 = load ptr, ptr %8, align 8
  %10 = load ptr, ptr getelementptr inbounds (%struct.GlobalContext, ptr @global_context, i64 0, i32 20, i32 1), align 8
  %11 = icmp eq ptr %9, %10
  br i1 %11, label %12, label %14

12:                                               ; preds = %2
  store i8 1, ptr %5, align 8
  %13 = tail call ptr @module_find_symbol(ptr noundef nonnull getelementptr inbounds (%struct.GlobalContext, ptr @global_context, i64 0, i32 17), ptr noundef %7) #10
  br label %47

14:                                               ; preds = %2
  %15 = getelementptr inbounds i8, ptr %0, i64 8
  %16 = load ptr, ptr %15, align 8
  %17 = load ptr, ptr %16, align 8
  %18 = load ptr, ptr %17, align 8
  %19 = getelementptr inbounds i8, ptr %18, i64 8
  %20 = load ptr, ptr %19, align 8
  %21 = icmp eq ptr %9, %20
  br i1 %21, label %matches_subpath.exit.thread25, label %22

22:                                               ; preds = %14
  %23 = getelementptr inbounds i8, ptr %18, i64 16
  %24 = load i32, ptr %23, align 8
  %25 = zext i32 %24 to i64
  %26 = getelementptr inbounds i8, ptr %4, i64 16
  %27 = load i32, ptr %26, align 8
  %28 = zext i32 %27 to i64
  %29 = sub nsw i64 %25, %28
  %30 = icmp slt i64 %29, 3
  br i1 %30, label %matches_subpath.exit.thread, label %31

31:                                               ; preds = %22
  %32 = getelementptr i8, ptr %20, i64 %29
  %33 = getelementptr i8, ptr %32, i64 -1
  %34 = load i8, ptr %33, align 1
  %.not.i = icmp eq i8 %34, 58
  br i1 %.not.i, label %35, label %matches_subpath.exit.thread

35:                                               ; preds = %31
  %36 = getelementptr i8, ptr %32, i64 -2
  %37 = load i8, ptr %36, align 1
  %.not16.i = icmp eq i8 %37, 58
  br i1 %.not16.i, label %matches_subpath.exit, label %matches_subpath.exit.thread

matches_subpath.exit:                             ; preds = %35
  %bcmp.i = tail call i32 @bcmp(ptr %32, ptr %9, i64 %28)
  %38 = icmp eq i32 %bcmp.i, 0
  br i1 %38, label %matches_subpath.exit.thread25, label %matches_subpath.exit.thread

matches_subpath.exit.thread25:                    ; preds = %14, %matches_subpath.exit
  %39 = tail call ptr @module_find_symbol(ptr noundef nonnull %17, ptr noundef %7) #10
  %.not = icmp eq ptr %39, null
  br i1 %.not, label %40, label %47

40:                                               ; preds = %matches_subpath.exit.thread25
  store i8 1, ptr %5, align 8
  br label %matches_subpath.exit.thread

matches_subpath.exit.thread:                      ; preds = %31, %35, %22, %40, %matches_subpath.exit
  %41 = getelementptr inbounds i8, ptr %16, i64 16
  %42 = load ptr, ptr %41, align 8
  %43 = tail call fastcc ptr @sema_find_decl_in_private_imports(ptr noundef %42, ptr noundef nonnull %1, i1 noundef zeroext false)
  %.not23 = icmp eq ptr %43, null
  br i1 %.not23, label %44, label %47

44:                                               ; preds = %matches_subpath.exit.thread
  %45 = load ptr, ptr getelementptr inbounds (%struct.GlobalContext, ptr @global_context, i64 0, i32 2), align 8
  %46 = tail call fastcc ptr @sema_find_decl_in_global(ptr noundef nonnull %16, ptr noundef nonnull getelementptr inbounds (%struct.GlobalContext, ptr @global_context, i64 0, i32 18), ptr noundef %45, ptr noundef nonnull %1, i1 noundef zeroext false)
  br label %47

47:                                               ; preds = %44, %matches_subpath.exit.thread, %matches_subpath.exit.thread25, %12
  %.0 = phi ptr [ %13, %12 ], [ %39, %matches_subpath.exit.thread25 ], [ %46, %44 ], [ %43, %matches_subpath.exit.thread ]
  ret ptr %.0
}